; Function Attrs: uwtable
define void @_ZThn16_N3gmx17AnalysisDataProxy19frameFinishedSerialEi(ptr noundef %0, i32 noundef %1) unnamed_addr #4 align 2 {
  %3 = alloca %"class.gmx::AnalysisDataFrameHeader", align 4
  call void @llvm.lifetime.start.p0(i64 12, ptr nonnull %3)
  %4 = getelementptr inbounds i8, ptr %0, i64 24
  %5 = load i8, ptr %4, align 8
  %6 = trunc i8 %5 to i1
  br i1 %6, label %7, label %_ZN3gmx17AnalysisDataProxy19frameFinishedSerialEi.exit

7:                                                ; preds = %2
  %8 = getelementptr inbounds i8, ptr %0, i64 -16
  call void @_ZN3gmx23AnalysisDataFrameHeaderC1Eiff(ptr noundef nonnull align 4 dereferenceable(12) %3, i32 noundef %1, float noundef 0.000000e+00, float noundef 0.000000e+00)
  %9 = call noundef nonnull align 8 dereferenceable(8) ptr @_ZN3gmx20AbstractAnalysisData13moduleManagerEv(ptr noundef nonnull align 8 dereferenceable(16) %8)
  call void @_ZNK3gmx25AnalysisDataModuleManager17notifyFrameFinishERKNS_23AnalysisDataFrameHeaderE(ptr noundef nonnull align 8 dereferenceable(8) %9, ptr noundef nonnull align 4 dereferenceable(12) %3)
  br label %_ZN3gmx17AnalysisDataProxy19frameFinishedSerialEi.exit

_ZN3gmx17AnalysisDataProxy19frameFinishedSerialEi.exit: ; preds = %2, %7
  call void @llvm.lifetime.end.p0(i64 12, ptr nonnull %3)
  ret void
}